target datalayout = "e-m:e-p270:32:32-p271:32:32-p272:64:64-i64:64-i128:128-f80:128-n8:16:32:64-S128"
target triple = "x86_64-pc-linux-gnu"

%struct._zend_array = type { %struct._zend_refcounted_h, %union.anon.6, i32, %union.anon.8, i32, i32, i32, i32, i64, ptr }
%struct._zend_refcounted_h = type { i32, %union.anon }
%union.anon = type { i32 }
%union.anon.6 = type { i32 }
%union.anon.8 = type { ptr }
%struct._zend_stack = type { i32, i32, i32, ptr }
%struct._zend_executor_globals = type { %struct._zval_struct, %struct._zval_struct, [32 x ptr], ptr, ptr, %struct._zend_array, %struct._zend_array, ptr, i32, i8, %struct._zval_struct, i32, ptr, ptr, ptr, ptr, ptr, ptr, i64, ptr, ptr, i32, ptr, i32, i64, i32, i32, i32, i8, i8, %struct.zend_atomic_bool_s, %struct.zend_atomic_bool_s, ptr, i64, ptr, ptr, %struct._zend_array, %struct._zend_array, i32, i8, %struct._zval_struct, %struct._zval_struct, %struct._zend_stack, %struct._zend_stack, %struct._zend_stack, ptr, i32, i32, i64, ptr, ptr, ptr, %struct._zend_objects_store, %struct._zend_lazy_objects_store, ptr, ptr, ptr, [3 x %struct._zend_op], ptr, i8, i8, i64, i32, i32, ptr, [16 x %struct._HashTableIterator], ptr, %union._zend_function, %struct._zend_op, %struct._zend_array, i64, %struct.zend_get_gc_buffer, ptr, ptr, ptr, i64, i8, i32, ptr, ptr, i64, %struct._zend_call_stack, i64, i64, %struct._zend_strtod_state, [6 x ptr] }
%struct.zend_atomic_bool_s = type { i8 }
%struct._zval_struct = type { %union._zend_value, %union.anon.0, %union.anon.3 }
%union._zend_value = type { i64 }
%union.anon.0 = type { i32 }
%union.anon.3 = type { i32 }
%struct._zend_objects_store = type { ptr, i32, i32, i32 }
%struct._zend_lazy_objects_store = type { %struct._zend_array }
%struct._HashTableIterator = type { ptr, i32, i32 }
%union._zend_function = type { %struct._zend_op_array }
%struct._zend_op_array = type { i8, [3 x i8], i32, ptr, ptr, ptr, i32, i32, ptr, ptr, ptr, ptr, i32, ptr, i32, i32, i32, ptr, ptr, ptr, ptr, ptr, i32, i32, ptr, ptr, ptr, i32, i32, i32, i32, ptr, ptr, [6 x ptr] }
%struct._zend_op = type { ptr, %union._znode_op, %union._znode_op, %union._znode_op, i32, i32, i8, i8, i8, i8 }
%union._znode_op = type { i32 }
%struct.zend_get_gc_buffer = type { ptr, ptr, ptr }
%struct._zend_call_stack = type { ptr, i64 }
%struct._zend_strtod_state = type { [8 x ptr], ptr, ptr }
%struct._zend_generator = type { %struct._zend_object, ptr, ptr, %struct._zval_struct, %struct._zval_struct, %struct._zval_struct, ptr, i64, %struct._zval_struct, %struct._zend_generator_node, %struct._zend_execute_data, ptr, i8 }
%struct._zend_object = type { %struct._zend_refcounted_h, i32, i32, ptr, ptr, ptr, [1 x %struct._zval_struct] }
%struct._zend_generator_node = type { ptr, i32, %union.anon.4, %union.anon.5 }
%union.anon.4 = type { ptr }
%union.anon.5 = type { ptr }
%struct._zend_execute_data = type { ptr, ptr, ptr, ptr, %struct._zval_struct, ptr, ptr, ptr, ptr }
%struct.anon.9 = type { i8, [3 x i8], i32, ptr, ptr, ptr, i32, i32, ptr, ptr, ptr, ptr, i32, ptr }

@executor_globals = external global %struct._zend_executor_globals, align 8

; Function Attrs: alwaysinline nounwind uwtable
define internal void @zend_vm_init_call_frame(ptr noundef %0, i32 noundef %1, ptr noundef %2, i32 noundef %3, ptr noundef %4) #2 {
  %6 = alloca ptr, align 8
  %7 = alloca i32, align 4
  %8 = alloca ptr, align 8
  %9 = alloca i32, align 4
  %10 = alloca ptr, align 8
  store ptr %0, ptr %6, align 8, !tbaa !9
  store i32 %1, ptr %7, align 4, !tbaa !32
  store ptr %2, ptr %8, align 8, !tbaa !33
  store i32 %3, ptr %9, align 4, !tbaa !32
  store ptr %4, ptr %10, align 8, !tbaa !34
  %11 = load ptr, ptr %8, align 8, !tbaa !33
  %12 = getelementptr inbounds nuw %struct.anon.9, ptr %11, i32 0, i32 4
  %13 = load ptr, ptr %12, align 8, !tbaa !26
  %14 = icmp ne ptr %13, null
  br i1 %14, label %15, label %18

15:                                               ; preds = %5
  %16 = load ptr, ptr %10, align 8, !tbaa !34
  %17 = icmp ne ptr %16, null
  br label %18

18:                                               ; preds = %15, %5
  %19 = phi i1 [ true, %5 ], [ %17, %15 ]
  call void @llvm.assume(i1 %19)
  %20 = load ptr, ptr %8, align 8, !tbaa !33
  %21 = load ptr, ptr %6, align 8, !tbaa !9
  %22 = getelementptr inbounds nuw %struct._zend_execute_data, ptr %21, i32 0, i32 3
  store ptr %20, ptr %22, align 8, !tbaa !27
  %23 = load ptr, ptr %10, align 8, !tbaa !34
  %24 = load ptr, ptr %6, align 8, !tbaa !9
  %25 = getelementptr inbounds nuw %struct._zend_execute_data, ptr %24, i32 0, i32 4
  %26 = getelementptr inbounds nuw %struct._zval_struct, ptr %25, i32 0, i32 0
  store ptr %23, ptr %26, align 8, !tbaa !26
  %27 = load i32, ptr %7, align 4, !tbaa !32
  %28 = load ptr, ptr %6, align 8, !tbaa !9
  %29 = getelementptr inbounds nuw %struct._zend_execute_data, ptr %28, i32 0, i32 4
  %30 = getelementptr inbounds nuw %struct._zval_struct, ptr %29, i32 0, i32 1
  store i32 %27, ptr %30, align 8, !tbaa !26
  %31 = load i32, ptr %9, align 4, !tbaa !32
  %32 = load ptr, ptr %6, align 8, !tbaa !9
  %33 = getelementptr inbounds nuw %struct._zend_execute_data, ptr %32, i32 0, i32 4
  %34 = getelementptr inbounds nuw %struct._zval_struct, ptr %33, i32 0, i32 2
  store i32 %31, ptr %34, align 4, !tbaa !26
  ret void
}

; Function Attrs: alwaysinline nounwind uwtable
define internal ptr @zend_vm_stack_push_call_frame_ex(i32 noundef %0, i32 noundef %1, ptr noundef %2, i32 noundef %3, ptr noundef %4) #2 {
  %6 = alloca ptr, align 8
  %7 = alloca i32, align 4
  %8 = alloca i32, align 4
  %9 = alloca ptr, align 8
  %10 = alloca i32, align 4
  %11 = alloca ptr, align 8
  %12 = alloca ptr, align 8
  %13 = alloca i32, align 4
  store i32 %0, ptr %7, align 4, !tbaa !32
  store i32 %1, ptr %8, align 4, !tbaa !32
  store ptr %2, ptr %9, align 8, !tbaa !33
  store i32 %3, ptr %10, align 4, !tbaa !32
  store ptr %4, ptr %11, align 8, !tbaa !34
  call void @llvm.lifetime.start.p0(i64 8, ptr %12) #11
  %14 = load ptr, ptr getelementptr inbounds nuw (%struct._zend_executor_globals, ptr @executor_globals, i32 0, i32 15), align 8, !tbaa !170
  store ptr %14, ptr %12, align 8, !tbaa !9
  %15 = load i32, ptr %7, align 4, !tbaa !32
  %16 = zext i32 %15 to i64
  %17 = load ptr, ptr getelementptr inbounds nuw (%struct._zend_executor_globals, ptr @executor_globals, i32 0, i32 16), align 8, !tbaa !171
  %18 = load ptr, ptr %12, align 8, !tbaa !9
  %19 = ptrtoint ptr %17 to i64
  %20 = ptrtoint ptr %18 to i64
  %21 = sub i64 %19, %20
  %22 = icmp ugt i64 %16, %21
  %23 = xor i1 %22, true
  %24 = xor i1 %23, true
  %25 = zext i1 %24 to i32
  %26 = sext i32 %25 to i64
  %27 = call i64 @llvm.expect.i64(i64 %26, i64 0)
  %28 = icmp ne i64 %27, 0
  br i1 %28, label %29, label %40

29:                                               ; preds = %5
  %30 = load i32, ptr %7, align 4, !tbaa !32
  %31 = zext i32 %30 to i64
  %32 = call ptr @zend_vm_stack_extend(i64 noundef %31)
  store ptr %32, ptr %12, align 8, !tbaa !9
  %33 = load ptr, ptr %12, align 8, !tbaa !9
  %34 = load i32, ptr %8, align 4, !tbaa !32
  %35 = or i32 %34, 262144
  %36 = load ptr, ptr %9, align 8, !tbaa !33
  %37 = load i32, ptr %10, align 4, !tbaa !32
  %38 = load ptr, ptr %11, align 8, !tbaa !34
  call void @zend_vm_init_call_frame(ptr noundef %33, i32 noundef %35, ptr noundef %36, i32 noundef %37, ptr noundef %38)
  %39 = load ptr, ptr %12, align 8, !tbaa !9
  store ptr %39, ptr %6, align 8
  store i32 1, ptr %13, align 4
  br label %51

40:                                               ; preds = %5
  %41 = load ptr, ptr %12, align 8, !tbaa !9
  %42 = load i32, ptr %7, align 4, !tbaa !32
  %43 = zext i32 %42 to i64
  %44 = getelementptr inbounds nuw i8, ptr %41, i64 %43
  store ptr %44, ptr getelementptr inbounds nuw (%struct._zend_executor_globals, ptr @executor_globals, i32 0, i32 15), align 8, !tbaa !170
  %45 = load ptr, ptr %12, align 8, !tbaa !9
  %46 = load i32, ptr %8, align 4, !tbaa !32
  %47 = load ptr, ptr %9, align 8, !tbaa !33
  %48 = load i32, ptr %10, align 4, !tbaa !32
  %49 = load ptr, ptr %11, align 8, !tbaa !34
  call void @zend_vm_init_call_frame(ptr noundef %45, i32 noundef %46, ptr noundef %47, i32 noundef %48, ptr noundef %49)
  %50 = load ptr, ptr %12, align 8, !tbaa !9
  store ptr %50, ptr %6, align 8
  store i32 1, ptr %13, align 4
  br label %51

51:                                               ; preds = %40, %29
  call void @llvm.lifetime.end.p0(i64 8, ptr %12) #11
  %52 = load ptr, ptr %6, align 8
  ret ptr %52
}

; Function Attrs: alwaysinline nounwind uwtable
define internal i32 @zend_vm_calc_used_stack(i32 noundef %0, ptr noundef %1) #2 {
  %3 = alloca i32, align 4
  %4 = alloca ptr, align 8
  %5 = alloca i32, align 4
  store i32 %0, ptr %3, align 4, !tbaa !32
  store ptr %1, ptr %4, align 8, !tbaa !33
  call void @llvm.lifetime.start.p0(i64 4, ptr %5) #11
  %6 = load i32, ptr %3, align 4, !tbaa !32
  %7 = add i32 5, %6
  %8 = load ptr, ptr %4, align 8, !tbaa !33
  %9 = getelementptr inbounds nuw %struct.anon.9, ptr %8, i32 0, i32 12
  %10 = load i32, ptr %9, align 8, !tbaa !26
  %11 = add i32 %7, %10
  store i32 %11, ptr %5, align 4, !tbaa !32
  %12 = load ptr, ptr %4, align 8, !tbaa !33
  %13 = load i8, ptr %12, align 8, !tbaa !26
  %14 = zext i8 %13 to i32
  %15 = icmp ne i32 %14, 1
  %16 = xor i1 %15, true
  %17 = xor i1 %16, true
  %18 = zext i1 %17 to i32
  %19 = sext i32 %18 to i64
  %20 = call i64 @llvm.expect.i64(i64 %19, i64 1)
  %21 = icmp ne i64 %20, 0
  br i1 %21, label %22, label %42

22:                                               ; preds = %2
  %23 = load ptr, ptr %4, align 8, !tbaa !33
  %24 = getelementptr inbounds nuw %struct._zend_op_array, ptr %23, i32 0, i32 15
  %25 = load i32, ptr %24, align 4, !tbaa !26
  %26 = load ptr, ptr %4, align 8, !tbaa !33
  %27 = getelementptr inbounds nuw %struct._zend_op_array, ptr %26, i32 0, i32 6
  %28 = load i32, ptr %27, align 8, !tbaa !26
  %29 = load i32, ptr %3, align 4, !tbaa !32
  %30 = icmp ult i32 %28, %29
  br i1 %30, label %31, label %35

31:                                               ; preds = %22
  %32 = load ptr, ptr %4, align 8, !tbaa !33
  %33 = getelementptr inbounds nuw %struct._zend_op_array, ptr %32, i32 0, i32 6
  %34 = load i32, ptr %33, align 8, !tbaa !26
  br label %37

35:                                               ; preds = %22
  %36 = load i32, ptr %3, align 4, !tbaa !32
  br label %37

37:                                               ; preds = %35, %31
  %38 = phi i32 [ %34, %31 ], [ %36, %35 ]
  %39 = sub i32 %25, %38
  %40 = load i32, ptr %5, align 4, !tbaa !32
  %41 = add i32 %40, %39
  store i32 %41, ptr %5, align 4, !tbaa !32
  br label %42

42:                                               ; preds = %37, %2
  %43 = load i32, ptr %5, align 4, !tbaa !32
  %44 = zext i32 %43 to i64
  %45 = mul i64 %44, 16
  %46 = trunc i64 %45 to i32
  call void @llvm.lifetime.end.p0(i64 4, ptr %5) #11
  ret i32 %46
}

; Function Attrs: alwaysinline nounwind uwtable
define internal ptr @zend_vm_stack_push_call_frame(i32 noundef %0, ptr noundef %1, i32 noundef %2, ptr noundef %3) #2 {
  %5 = alloca i32, align 4
  %6 = alloca ptr, align 8
  %7 = alloca i32, align 4
  %8 = alloca ptr, align 8
  %9 = alloca i32, align 4
  store i32 %0, ptr %5, align 4, !tbaa !32
  store ptr %1, ptr %6, align 8, !tbaa !33
  store i32 %2, ptr %7, align 4, !tbaa !32
  store ptr %3, ptr %8, align 8, !tbaa !34
  call void @llvm.lifetime.start.p0(i64 4, ptr %9) #11
  %10 = load i32, ptr %7, align 4, !tbaa !32
  %11 = load ptr, ptr %6, align 8, !tbaa !33
  %12 = call i32 @zend_vm_calc_used_stack(i32 noundef %10, ptr noundef %11)
  store i32 %12, ptr %9, align 4, !tbaa !32
  %13 = load i32, ptr %9, align 4, !tbaa !32
  %14 = load i32, ptr %5, align 4, !tbaa !32
  %15 = load ptr, ptr %6, align 8, !tbaa !33
  %16 = load i32, ptr %7, align 4, !tbaa !32
  %17 = load ptr, ptr %8, align 8, !tbaa !34
  %18 = call ptr @zend_vm_stack_push_call_frame_ex(i32 noundef %13, i32 noundef %14, ptr noundef %15, i32 noundef %16, ptr noundef %17)
  call void @llvm.lifetime.end.p0(i64 4, ptr %9) #11
  ret ptr %18
}

; Function Attrs: nounwind uwtable
define dso_local void @zend_generator_restore_call_stack(ptr noundef %0) #0 {
  %2 = alloca ptr, align 8
  %3 = alloca ptr, align 8
  %4 = alloca ptr, align 8
  %5 = alloca ptr, align 8
  store ptr %0, ptr %2, align 8, !tbaa !4
  call void @llvm.lifetime.start.p0(i64 8, ptr %3) #11
  call void @llvm.lifetime.start.p0(i64 8, ptr %4) #11
  call void @llvm.lifetime.start.p0(i64 8, ptr %5) #11
  store ptr null, ptr %5, align 8, !tbaa !9
  %6 = load ptr, ptr %2, align 8, !tbaa !4
  %7 = getelementptr inbounds nuw %struct._zend_generator, ptr %6, i32 0, i32 2
  %8 = load ptr, ptr %7, align 8, !tbaa !11
  store ptr %8, ptr %3, align 8, !tbaa !9
  br label %9

9:                                                ; preds = %49, %1
  %10 = load ptr, ptr %3, align 8, !tbaa !9
  %11 = getelementptr inbounds nuw %struct._zend_execute_data, ptr %10, i32 0, i32 4
  %12 = getelementptr inbounds nuw %struct._zval_struct, ptr %11, i32 0, i32 1
  %13 = load i32, ptr %12, align 8, !tbaa !26
  %14 = and i32 %13, -262145
  %15 = load ptr, ptr %3, align 8, !tbaa !9
  %16 = getelementptr inbounds nuw %struct._zend_execute_data, ptr %15, i32 0, i32 3
  %17 = load ptr, ptr %16, align 8, !tbaa !27
  %18 = load ptr, ptr %3, align 8, !tbaa !9
  %19 = getelementptr inbounds nuw %struct._zend_execute_data, ptr %18, i32 0, i32 4
  %20 = getelementptr inbounds nuw %struct._zval_struct, ptr %19, i32 0, i32 2
  %21 = load i32, ptr %20, align 4, !tbaa !26
  %22 = load ptr, ptr %3, align 8, !tbaa !9
  %23 = getelementptr inbounds nuw %struct._zend_execute_data, ptr %22, i32 0, i32 4
  %24 = getelementptr inbounds nuw %struct._zval_struct, ptr %23, i32 0, i32 0
  %25 = load ptr, ptr %24, align 8, !tbaa !26
  %26 = call ptr @zend_vm_stack_push_call_frame(i32 noundef %14, ptr noundef %17, i32 noundef %21, ptr noundef %25)
  store ptr %26, ptr %4, align 8, !tbaa !9
  %27 = load ptr, ptr %4, align 8, !tbaa !9
  %28 = getelementptr inbounds %struct._zval_struct, ptr %27, i64 5
  %29 = load ptr, ptr %3, align 8, !tbaa !9
  %30 = getelementptr inbounds %struct._zval_struct, ptr %29, i64 5
  %31 = load ptr, ptr %3, align 8, !tbaa !9
  %32 = getelementptr inbounds nuw %struct._zend_execute_data, ptr %31, i32 0, i32 4
  %33 = getelementptr inbounds nuw %struct._zval_struct, ptr %32, i32 0, i32 2
  %34 = load i32, ptr %33, align 4, !tbaa !26
  %35 = zext i32 %34 to i64
  %36 = mul i64 %35, 16
  call void @llvm.memcpy.p0.p0.i64(ptr align 8 %28, ptr align 8 %30, i64 %36, i1 false)
  %37 = load ptr, ptr %3, align 8, !tbaa !9
  %38 = getelementptr inbounds nuw %struct._zend_execute_data, ptr %37, i32 0, i32 8
  %39 = load ptr, ptr %38, align 8, !tbaa !28
  %40 = load ptr, ptr %4, align 8, !tbaa !9
  %41 = getelementptr inbounds nuw %struct._zend_execute_data, ptr %40, i32 0, i32 8
  store ptr %39, ptr %41, align 8, !tbaa !28
  %42 = load ptr, ptr %5, align 8, !tbaa !9
  %43 = load ptr, ptr %4, align 8, !tbaa !9
  %44 = getelementptr inbounds nuw %struct._zend_execute_data, ptr %43, i32 0, i32 5
  store ptr %42, ptr %44, align 8, !tbaa !29
  %45 = load ptr, ptr %4, align 8, !tbaa !9
  store ptr %45, ptr %5, align 8, !tbaa !9
  %46 = load ptr, ptr %3, align 8, !tbaa !9
  %47 = getelementptr inbounds nuw %struct._zend_execute_data, ptr %46, i32 0, i32 5
  %48 = load ptr, ptr %47, align 8, !tbaa !29
  store ptr %48, ptr %3, align 8, !tbaa !9
  br label %49

49:                                               ; preds = %9
  %50 = load ptr, ptr %3, align 8, !tbaa !9
  %51 = icmp ne ptr %50, null
  br i1 %51, label %9, label %52

52:                                               ; preds = %49
  %53 = load ptr, ptr %5, align 8, !tbaa !9
  %54 = load ptr, ptr %2, align 8, !tbaa !4
  %55 = getelementptr inbounds nuw %struct._zend_generator, ptr %54, i32 0, i32 1
  %56 = load ptr, ptr %55, align 8, !tbaa !30
  %57 = getelementptr inbounds nuw %struct._zend_execute_data, ptr %56, i32 0, i32 1
  store ptr %53, ptr %57, align 8, !tbaa !31
  %58 = load ptr, ptr %2, align 8, !tbaa !4
  %59 = getelementptr inbounds nuw %struct._zend_generator, ptr %58, i32 0, i32 2
  %60 = load ptr, ptr %59, align 8, !tbaa !11
  call void @_efree(ptr noundef %60)
  %61 = load ptr, ptr %2, align 8, !tbaa !4
  %62 = getelementptr inbounds nuw %struct._zend_generator, ptr %61, i32 0, i32 2
  store ptr null, ptr %62, align 8, !tbaa !11
  call void @llvm.lifetime.end.p0(i64 8, ptr %5) #11
  call void @llvm.lifetime.end.p0(i64 8, ptr %4) #11
  call void @llvm.lifetime.end.p0(i64 8, ptr %3) #11
  ret void
}