; Function Attrs: nounwind uwtable
define dso_local void @zend_generator_restore_call_stack(ptr noundef captures(none) %0) local_unnamed_addr #0 {
  %2 = getelementptr inbounds nuw i8, ptr %0, i64 64
  %3 = load ptr, ptr %2, align 8, !tbaa !4
  br label %4

4:                                                ; preds = %zend_vm_stack_push_call_frame_ex.exit, %1
  %.019 = phi ptr [ %3, %1 ], [ %57, %zend_vm_stack_push_call_frame_ex.exit ]
  %.0 = phi ptr [ null, %1 ], [ %.sink29, %zend_vm_stack_push_call_frame_ex.exit ]
  %5 = getelementptr inbounds nuw i8, ptr %.019, i64 32
  %6 = getelementptr inbounds nuw i8, ptr %.019, i64 40
  %7 = load i32, ptr %6, align 8, !tbaa !24
  %8 = and i32 %7, -262145
  %9 = getelementptr inbounds nuw i8, ptr %.019, i64 24
  %10 = load ptr, ptr %9, align 8, !tbaa !25
  %11 = getelementptr inbounds nuw i8, ptr %.019, i64 44
  %12 = load i32, ptr %11, align 4, !tbaa !24
  %13 = load ptr, ptr %5, align 8, !tbaa !24
  %14 = add i32 %12, 5
  %15 = getelementptr inbounds nuw i8, ptr %10, i64 72
  %16 = load i32, ptr %15, align 8, !tbaa !24
  %17 = add i32 %14, %16
  %18 = load i8, ptr %10, align 8, !tbaa !24
  %.not.i = icmp eq i8 %18, 1
  br i1 %.not.i, label %zend_vm_calc_used_stack.exit, label %19, !prof !26

19:                                               ; preds = %4
  %20 = getelementptr inbounds nuw i8, ptr %10, i64 92
  %21 = load i32, ptr %20, align 4, !tbaa !24
  %22 = getelementptr inbounds nuw i8, ptr %10, i64 32
  %23 = load i32, ptr %22, align 8, !tbaa !24
  %..i = tail call i32 @llvm.umin.i32(i32 %23, i32 %12)
  %24 = add i32 %21, %17
  %25 = sub i32 %24, %..i
  br label %zend_vm_calc_used_stack.exit

zend_vm_calc_used_stack.exit:                     ; preds = %4, %19
  %.0.i = phi i32 [ %25, %19 ], [ %17, %4 ]
  %26 = shl i32 %.0.i, 4
  %27 = load ptr, ptr getelementptr inbounds nuw (i8, ptr @executor_globals, i64 480), align 8, !tbaa !27
  %28 = zext i32 %26 to i64
  %29 = load ptr, ptr getelementptr inbounds nuw (i8, ptr @executor_globals, i64 488), align 8, !tbaa !53
  %30 = ptrtoint ptr %29 to i64
  %31 = ptrtoint ptr %27 to i64
  %32 = sub i64 %30, %31
  %33 = icmp ult i64 %32, %28
  %34 = getelementptr inbounds nuw i8, ptr %10, i64 16
  %35 = icmp ne ptr %13, null
  br i1 %33, label %36, label %39, !prof !26

36:                                               ; preds = %zend_vm_calc_used_stack.exit
  %37 = tail call ptr @zend_vm_stack_extend(i64 noundef %28) #11
  %38 = or i32 %7, 262144
  br label %zend_vm_stack_push_call_frame_ex.exit

39:                                               ; preds = %zend_vm_calc_used_stack.exit
  %40 = getelementptr inbounds nuw i8, ptr %27, i64 %28
  store ptr %40, ptr getelementptr inbounds nuw (i8, ptr @executor_globals, i64 480), align 8, !tbaa !27
  br label %zend_vm_stack_push_call_frame_ex.exit

zend_vm_stack_push_call_frame_ex.exit:            ; preds = %36, %39
  %.sink29 = phi ptr [ %37, %36 ], [ %27, %39 ]
  %.sink = phi i32 [ %38, %36 ], [ %8, %39 ]
  %41 = load ptr, ptr %34, align 8, !tbaa !24
  %.not.i21 = icmp eq ptr %41, null
  %42 = or i1 %35, %.not.i21
  tail call void @llvm.assume(i1 %42)
  %43 = getelementptr inbounds nuw i8, ptr %.sink29, i64 24
  store ptr %10, ptr %43, align 8, !tbaa !25
  %44 = getelementptr inbounds nuw i8, ptr %.sink29, i64 32
  store ptr %13, ptr %44, align 8, !tbaa !24
  %45 = getelementptr inbounds nuw i8, ptr %.sink29, i64 40
  store i32 %.sink, ptr %45, align 8, !tbaa !24
  %46 = getelementptr inbounds nuw i8, ptr %.sink29, i64 44
  store i32 %12, ptr %46, align 4, !tbaa !24
  %47 = getelementptr inbounds nuw i8, ptr %.sink29, i64 80
  %48 = getelementptr inbounds nuw i8, ptr %.019, i64 80
  %49 = load i32, ptr %11, align 4, !tbaa !24
  %50 = zext i32 %49 to i64
  %51 = shl nuw nsw i64 %50, 4
  tail call void @llvm.memcpy.p0.p0.i64(ptr nonnull align 8 %47, ptr nonnull align 8 %48, i64 %51, i1 false)
  %52 = getelementptr inbounds nuw i8, ptr %.019, i64 72
  %53 = load ptr, ptr %52, align 8, !tbaa !54
  %54 = getelementptr inbounds nuw i8, ptr %.sink29, i64 72
  store ptr %53, ptr %54, align 8, !tbaa !54
  %55 = getelementptr inbounds nuw i8, ptr %.sink29, i64 48
  store ptr %.0, ptr %55, align 8, !tbaa !55
  %56 = getelementptr inbounds nuw i8, ptr %.019, i64 48
  %57 = load ptr, ptr %56, align 8, !tbaa !55
  %.not = icmp eq ptr %57, null
  br i1 %.not, label %58, label %4

58:                                               ; preds = %zend_vm_stack_push_call_frame_ex.exit
  %59 = getelementptr inbounds nuw i8, ptr %0, i64 56
  %60 = load ptr, ptr %59, align 8, !tbaa !56
  %61 = getelementptr inbounds nuw i8, ptr %60, i64 8
  store ptr %.sink29, ptr %61, align 8, !tbaa !57
  %62 = load ptr, ptr %2, align 8, !tbaa !4
  tail call void @_efree(ptr noundef %62) #11
  store ptr null, ptr %2, align 8, !tbaa !4
  ret void
}